target datalayout = "e-m:e-p270:32:32-p271:32:32-p272:64:64-i64:64-i128:128-f80:128-n8:16:32:64-S128"
target triple = "x86_64-pc-linux-gnu"

%class.symbol = type { ptr }
%"class.smt::model_checker" = type { ptr, ptr, %class.array_util, %class.scoped_ptr, ptr, ptr, ptr, ptr, %class.scoped_ptr.0, i32, i32, ptr, %class.obj_map, %class.ref_vector, %class.svector, %class.ref_vector, %class.obj_mark }
%class.array_util = type { %class.array_recognizers, ptr }
%class.array_recognizers = type { i32 }
%class.scoped_ptr = type { ptr }
%class.scoped_ptr.0 = type { ptr }
%class.obj_map = type { %class.core_hashtable }
%class.core_hashtable = type <{ ptr, i32, i32, i32, [4 x i8] }>
%class.svector = type { %class.vector.1 }
%class.vector.1 = type { ptr }
%class.ref_vector = type { %class.ref_vector_core }
%class.ref_vector_core = type { %class.ref_manager_wrapper, %class.ptr_vector }
%class.ref_manager_wrapper = type { ptr }
%class.ptr_vector = type { %class.vector }
%class.vector = type { ptr }
%class.obj_mark = type { [8 x i8], %class.bit_vector }
%class.bit_vector = type { i32, i32, ptr }
%class.app = type { %class.expr, ptr, i32, %struct.app_flags, [0 x ptr] }
%class.expr = type { %class.ast }
%class.ast = type { i32, i32, i32, i32 }
%struct.app_flags = type <{ i16, i8, i8 }>
%class.decl = type { %class.ast, %class.symbol, ptr }
%class.decl_info = type <{ i32, i32, %class.vector.338, i8, [7 x i8] }>
%class.vector.338 = type { ptr }

@_ZTIN3smt13model_checker14is_model_valueE = linkonce_odr hidden constant { ptr, ptr } { ptr getelementptr inbounds (ptr, ptr @_ZTVN10__cxxabiv117__class_type_infoE, i64 2), ptr @_ZTSN3smt13model_checker14is_model_valueE }, comdat, align 8

; Function Attrs: mustprogress nounwind uwtable
define linkonce_odr hidden noundef zeroext i1 @_ZNK9decl_info10is_decl_ofEii(ptr noundef nonnull align 8 dereferenceable(17) %0, i32 noundef %1, i32 noundef %2) #4 comdat align 2 {
  %4 = alloca ptr, align 8
  %5 = alloca i32, align 4
  %6 = alloca i32, align 4
  store ptr %0, ptr %4, align 8, !tbaa !922
  store i32 %1, ptr %5, align 4, !tbaa !8
  store i32 %2, ptr %6, align 4, !tbaa !8
  %7 = load ptr, ptr %4, align 8
  %8 = getelementptr inbounds nuw %class.decl_info, ptr %7, i32 0, i32 0
  %9 = load i32, ptr %8, align 8, !tbaa !923
  %10 = load i32, ptr %5, align 4, !tbaa !8
  %11 = icmp eq i32 %9, %10
  br i1 %11, label %12, label %17

12:                                               ; preds = %3
  %13 = load i32, ptr %6, align 4, !tbaa !8
  %14 = getelementptr inbounds nuw %class.decl_info, ptr %7, i32 0, i32 1
  %15 = load i32, ptr %14, align 4, !tbaa !927
  %16 = icmp eq i32 %13, %15
  br label %17

17:                                               ; preds = %12, %3
  %18 = phi i1 [ false, %3 ], [ %16, %12 ]
  ret i1 %18
}

; Function Attrs: mustprogress uwtable
define linkonce_odr hidden noundef zeroext i1 @_ZNK4decl10is_decl_ofEii(ptr noundef nonnull align 8 dereferenceable(32) %0, i32 noundef %1, i32 noundef %2) #6 comdat align 2 {
  %4 = alloca ptr, align 8
  %5 = alloca i32, align 4
  %6 = alloca i32, align 4
  store ptr %0, ptr %4, align 8, !tbaa !919
  store i32 %1, ptr %5, align 4, !tbaa !8
  store i32 %2, ptr %6, align 4, !tbaa !8
  %7 = load ptr, ptr %4, align 8
  %8 = getelementptr inbounds nuw %class.decl, ptr %7, i32 0, i32 2
  %9 = load ptr, ptr %8, align 8, !tbaa !921
  %10 = icmp ne ptr %9, null
  br i1 %10, label %11, label %17

11:                                               ; preds = %3
  %12 = getelementptr inbounds nuw %class.decl, ptr %7, i32 0, i32 2
  %13 = load ptr, ptr %12, align 8, !tbaa !921
  %14 = load i32, ptr %5, align 4, !tbaa !8
  %15 = load i32, ptr %6, align 4, !tbaa !8
  %16 = call noundef zeroext i1 @_ZNK9decl_info10is_decl_ofEii(ptr noundef nonnull align 8 dereferenceable(17) %13, i32 noundef %14, i32 noundef %15)
  br label %17

17:                                               ; preds = %11, %3
  %18 = phi i1 [ false, %3 ], [ %16, %11 ]
  ret i1 %18
}

; Function Attrs: mustprogress uwtable
define linkonce_odr hidden noundef zeroext i1 @_ZNK3app9is_app_ofEii(ptr noundef nonnull align 8 dereferenceable(32) %0, i32 noundef %1, i32 noundef %2) #6 comdat align 2 {
  %4 = alloca ptr, align 8
  %5 = alloca i32, align 4
  %6 = alloca i32, align 4
  store ptr %0, ptr %4, align 8, !tbaa !111
  store i32 %1, ptr %5, align 4, !tbaa !8
  store i32 %2, ptr %6, align 4, !tbaa !8
  %7 = load ptr, ptr %4, align 8
  %8 = getelementptr inbounds nuw %class.app, ptr %7, i32 0, i32 1
  %9 = load ptr, ptr %8, align 8, !tbaa !128
  %10 = load i32, ptr %5, align 4, !tbaa !8
  %11 = load i32, ptr %6, align 4, !tbaa !8
  %12 = call noundef zeroext i1 @_ZNK4decl10is_decl_ofEii(ptr noundef nonnull align 8 dereferenceable(32) %9, i32 noundef %10, i32 noundef %11)
  ret i1 %12
}

; Function Attrs: inlinehint mustprogress nounwind uwtable
define linkonce_odr hidden noundef ptr @_Z6to_appPK3ast(ptr noundef %0) #7 comdat {
  %2 = alloca ptr, align 8
  store ptr %0, ptr %2, align 8, !tbaa !112
  %3 = load ptr, ptr %2, align 8, !tbaa !112
  ret ptr %3
}

; Function Attrs: mustprogress nounwind uwtable
define linkonce_odr hidden void @_ZN10bit_vector5resetEv(ptr noundef nonnull align 8 dereferenceable(16) %0) #4 comdat align 2 {
  %2 = alloca ptr, align 8
  store ptr %0, ptr %2, align 8, !tbaa !858
  %3 = load ptr, ptr %2, align 8
  %4 = getelementptr inbounds nuw %class.bit_vector, ptr %3, i32 0, i32 2
  %5 = load ptr, ptr %4, align 8, !tbaa !860
  %6 = icmp ne ptr %5, null
  br i1 %6, label %7, label %14

7:                                                ; preds = %1
  %8 = getelementptr inbounds nuw %class.bit_vector, ptr %3, i32 0, i32 2
  %9 = load ptr, ptr %8, align 8, !tbaa !860
  %10 = getelementptr inbounds nuw %class.bit_vector, ptr %3, i32 0, i32 1
  %11 = load i32, ptr %10, align 4, !tbaa !1006
  %12 = zext i32 %11 to i64
  %13 = mul i64 %12, 4
  call void @llvm.memset.p0.i64(ptr align 4 %9, i8 0, i64 %13, i1 false)
  br label %14

14:                                               ; preds = %7, %1
  %15 = getelementptr inbounds nuw %class.bit_vector, ptr %3, i32 0, i32 0
  store i32 0, ptr %15, align 8, !tbaa !1005
  ret void
}

; Function Attrs: mustprogress nounwind uwtable
define linkonce_odr hidden noundef i32 @_ZNK3ast8get_kindEv(ptr noundef nonnull align 4 dereferenceable(16) %0) #4 comdat align 2 {
  %2 = alloca ptr, align 8
  store ptr %0, ptr %2, align 8, !tbaa !112
  %3 = load ptr, ptr %2, align 8
  %4 = getelementptr inbounds nuw %class.ast, ptr %3, i32 0, i32 1
  %5 = load i32, ptr %4, align 4
  %6 = and i32 %5, 65535
  ret i32 %6
}

; Function Attrs: inlinehint mustprogress uwtable
define linkonce_odr hidden noundef zeroext i1 @_Z9is_app_ofPK4exprii(ptr noundef %0, i32 noundef %1, i32 noundef %2) #9 comdat {
  %4 = alloca ptr, align 8
  %5 = alloca i32, align 4
  %6 = alloca i32, align 4
  store ptr %0, ptr %4, align 8, !tbaa !95
  store i32 %1, ptr %5, align 4, !tbaa !8
  store i32 %2, ptr %6, align 4, !tbaa !8
  %7 = load ptr, ptr %4, align 8, !tbaa !95
  %8 = call noundef i32 @_ZNK3ast8get_kindEv(ptr noundef nonnull align 4 dereferenceable(16) %7)
  %9 = icmp eq i32 %8, 0
  br i1 %9, label %10, label %16

10:                                               ; preds = %3
  %11 = load ptr, ptr %4, align 8, !tbaa !95
  %12 = call noundef ptr @_Z6to_appPK3ast(ptr noundef %11)
  %13 = load i32, ptr %5, align 4, !tbaa !8
  %14 = load i32, ptr %6, align 4, !tbaa !8
  %15 = call noundef zeroext i1 @_ZNK3app9is_app_ofEii(ptr noundef nonnull align 8 dereferenceable(32) %12, i32 noundef %13, i32 noundef %14)
  br label %16

16:                                               ; preds = %10, %3
  %17 = phi i1 [ false, %3 ], [ %15, %10 ]
  ret i1 %17
}

; Function Attrs: mustprogress uwtable
define linkonce_odr hidden void @_Z13for_each_exprIN3smt13model_checkerEEvRT_R8obj_markI4expr10bit_vector14default_t2uintIS5_EEPS5_(ptr noundef nonnull align 8 dereferenceable(184) %0, ptr noundef nonnull align 8 dereferenceable(24) %1, ptr noundef %2) #6 comdat {
  %4 = alloca ptr, align 8
  %5 = alloca ptr, align 8
  %6 = alloca ptr, align 8
  store ptr %0, ptr %4, align 8, !tbaa !28
  store ptr %1, ptr %5, align 8, !tbaa !83
  store ptr %2, ptr %6, align 8, !tbaa !95
  %7 = load ptr, ptr %4, align 8, !tbaa !28
  %8 = load ptr, ptr %5, align 8, !tbaa !83
  %9 = load ptr, ptr %6, align 8, !tbaa !95
  call void @_Z18for_each_expr_coreIN3smt13model_checkerE8obj_markI4expr10bit_vector14default_t2uintIS3_EELb1ELb0EEvRT_RT0_PS3_(ptr noundef nonnull align 8 dereferenceable(184) %7, ptr noundef nonnull align 8 dereferenceable(24) %8, ptr noundef %9)
  ret void
}

; Function Attrs: mustprogress uwtable
define linkonce_odr hidden void @_ZN8obj_markI4expr10bit_vector14default_t2uintIS0_EE5resetEv(ptr noundef nonnull align 8 dereferenceable(24) %0) #6 comdat align 2 {
  %2 = alloca ptr, align 8
  store ptr %0, ptr %2, align 8, !tbaa !83
  %3 = load ptr, ptr %2, align 8
  %4 = getelementptr inbounds nuw %class.obj_mark, ptr %3, i32 0, i32 1
  call void @_ZN10bit_vector5resetEv(ptr noundef nonnull align 8 dereferenceable(16) %4)
  ret void
}

; Function Attrs: mustprogress nounwind uwtable
define linkonce_odr hidden noundef i32 @_ZNK3app12get_num_argsEv(ptr noundef nonnull align 8 dereferenceable(32) %0) #4 comdat align 2 {
  %2 = alloca ptr, align 8
  store ptr %0, ptr %2, align 8, !tbaa !111
  %3 = load ptr, ptr %2, align 8
  %4 = getelementptr inbounds nuw %class.app, ptr %3, i32 0, i32 2
  %5 = load i32, ptr %4, align 8, !tbaa !114
  ret i32 %5
}

; Function Attrs: inlinehint mustprogress nounwind uwtable
define linkonce_odr hidden noundef ptr @_Z6to_appP3ast(ptr noundef %0) #7 comdat {
  %2 = alloca ptr, align 8
  store ptr %0, ptr %2, align 8, !tbaa !112
  %3 = load ptr, ptr %2, align 8, !tbaa !112
  ret ptr %3
}

; Function Attrs: inlinehint mustprogress uwtable
define linkonce_odr hidden noundef zeroext i1 @_Z6is_appPK3ast(ptr noundef %0) #9 comdat {
  %2 = alloca ptr, align 8
  store ptr %0, ptr %2, align 8, !tbaa !112
  %3 = load ptr, ptr %2, align 8, !tbaa !112
  %4 = call noundef i32 @_ZNK3ast8get_kindEv(ptr noundef nonnull align 4 dereferenceable(16) %3)
  %5 = icmp eq i32 %4, 0
  ret i1 %5
}

; Function Attrs: mustprogress uwtable
define linkonce_odr hidden noundef zeroext i1 @_ZNK11ast_manager14is_model_valueEPK4expr(ptr noundef nonnull align 8 dereferenceable(976) %0, ptr noundef %1) #6 comdat align 2 {
  %3 = alloca ptr, align 8
  %4 = alloca ptr, align 8
  store ptr %0, ptr %3, align 8, !tbaa !30
  store ptr %1, ptr %4, align 8, !tbaa !95
  %5 = load ptr, ptr %4, align 8, !tbaa !95
  %6 = call noundef zeroext i1 @_Z9is_app_ofPK4exprii(ptr noundef %5, i32 noundef 3, i32 noundef 0)
  ret i1 %6
}

; Function Attrs: mustprogress uwtable
define hidden noundef zeroext i1 @_ZN3smt13model_checker20contains_model_valueEP4expr(ptr noundef nonnull align 8 dereferenceable(184) %0, ptr noundef %1) #6 align 2 personality ptr @__gxx_personality_v0 {
  %3 = alloca i1, align 1
  %4 = alloca ptr, align 8
  %5 = alloca ptr, align 8
  %6 = alloca ptr, align 8
  %7 = alloca i32, align 4
  %8 = alloca ptr, align 8
  store ptr %0, ptr %4, align 8, !tbaa !28
  store ptr %1, ptr %5, align 8, !tbaa !95
  %9 = load ptr, ptr %4, align 8
  %10 = getelementptr inbounds nuw %"class.smt::model_checker", ptr %9, i32 0, i32 0
  %11 = load ptr, ptr %10, align 8, !tbaa !106
  %12 = load ptr, ptr %5, align 8, !tbaa !95
  %13 = call noundef zeroext i1 @_ZNK11ast_manager14is_model_valueEPK4expr(ptr noundef nonnull align 8 dereferenceable(976) %11, ptr noundef %12)
  br i1 %13, label %14, label %15

14:                                               ; preds = %2
  store i1 true, ptr %3, align 1
  br label %41

15:                                               ; preds = %2
  %16 = load ptr, ptr %5, align 8, !tbaa !95
  %17 = call noundef zeroext i1 @_Z6is_appPK3ast(ptr noundef %16)
  br i1 %17, label %18, label %24

18:                                               ; preds = %15
  %19 = load ptr, ptr %5, align 8, !tbaa !95
  %20 = call noundef ptr @_Z6to_appP3ast(ptr noundef %19)
  %21 = call noundef i32 @_ZNK3app12get_num_argsEv(ptr noundef nonnull align 8 dereferenceable(32) %20)
  %22 = icmp eq i32 %21, 0
  br i1 %22, label %23, label %24

23:                                               ; preds = %18
  store i1 false, ptr %3, align 1
  br label %41

24:                                               ; preds = %18, %15
  %25 = getelementptr inbounds nuw %"class.smt::model_checker", ptr %9, i32 0, i32 16
  call void @_ZN8obj_markI4expr10bit_vector14default_t2uintIS0_EE5resetEv(ptr noundef nonnull align 8 dereferenceable(24) %25)
  %26 = getelementptr inbounds nuw %"class.smt::model_checker", ptr %9, i32 0, i32 16
  %27 = load ptr, ptr %5, align 8, !tbaa !95
  invoke void @_Z13for_each_exprIN3smt13model_checkerEEvRT_R8obj_markI4expr10bit_vector14default_t2uintIS5_EEPS5_(ptr noundef nonnull align 8 dereferenceable(184) %9, ptr noundef nonnull align 8 dereferenceable(24) %26, ptr noundef %27)
          to label %28 unwind label %29

28:                                               ; preds = %24
  br label %40

29:                                               ; preds = %24
  %30 = landingpad { ptr, i32 }
          catch ptr @_ZTIN3smt13model_checker14is_model_valueE
  %31 = extractvalue { ptr, i32 } %30, 0
  store ptr %31, ptr %6, align 8
  %32 = extractvalue { ptr, i32 } %30, 1
  store i32 %32, ptr %7, align 4
  br label %33

33:                                               ; preds = %29
  %34 = load i32, ptr %7, align 4
  %35 = call i32 @llvm.eh.typeid.for.p0(ptr @_ZTIN3smt13model_checker14is_model_valueE) #3
  %36 = icmp eq i32 %34, %35
  br i1 %36, label %37, label %43

37:                                               ; preds = %33
  call void @llvm.lifetime.start.p0(i64 8, ptr %8) #3
  %38 = load ptr, ptr %6, align 8
  %39 = call ptr @__cxa_begin_catch(ptr %38) #3
  store ptr %39, ptr %8, align 8
  store i1 true, ptr %3, align 1
  call void @__cxa_end_catch()
  call void @llvm.lifetime.end.p0(i64 8, ptr %8) #3
  br label %41

40:                                               ; preds = %28
  store i1 false, ptr %3, align 1
  br label %41

41:                                               ; preds = %40, %37, %23, %14
  %42 = load i1, ptr %3, align 1
  ret i1 %42

43:                                               ; preds = %33
  %44 = load ptr, ptr %6, align 8
  %45 = load i32, ptr %7, align 4
  %46 = insertvalue { ptr, i32 } poison, ptr %44, 0
  %47 = insertvalue { ptr, i32 } %46, i32 %45, 1
  resume { ptr, i32 } %47
}