; Function Attrs: mustprogress uwtable
define hidden noundef zeroext i1 @_ZN3smt13model_checker20contains_model_valueEP4expr(ptr noundef nonnull align 8 dereferenceable(184) %0, ptr noundef %1) local_unnamed_addr #4 align 2 personality ptr @__gxx_personality_v0 {
  %3 = getelementptr inbounds nuw i8, ptr %1, i64 4
  %4 = load i32, ptr %3, align 4
  %5 = and i32 %4, 65535
  %6 = icmp eq i32 %5, 0
  br i1 %6, label %7, label %21

7:                                                ; preds = %2
  %8 = getelementptr inbounds nuw i8, ptr %1, i64 16
  %9 = load ptr, ptr %8, align 8, !tbaa !116
  %10 = getelementptr inbounds nuw i8, ptr %9, i64 24
  %11 = load ptr, ptr %10, align 8, !tbaa !196
  %.not.i.i.i.i = icmp eq ptr %11, null
  br i1 %.not.i.i.i.i, label %.thread9, label %_ZNK11ast_manager14is_model_valueEPK4expr.exit

_ZNK11ast_manager14is_model_valueEPK4expr.exit:   ; preds = %7
  %12 = load i32, ptr %11, align 8, !tbaa !197
  %13 = icmp eq i32 %12, 3
  %14 = getelementptr inbounds nuw i8, ptr %11, i64 4
  %15 = load i32, ptr %14, align 4
  %16 = icmp eq i32 %15, 0
  %17 = select i1 %13, i1 %16, i1 false
  br i1 %17, label %_Z13for_each_exprIN3smt13model_checkerEEvRT_R8obj_markI4expr10bit_vector14default_t2uintIS5_EEPS5_.exit, label %.thread9

.thread9:                                         ; preds = %_ZNK11ast_manager14is_model_valueEPK4expr.exit, %7
  %18 = getelementptr inbounds nuw i8, ptr %1, i64 24
  %19 = load i32, ptr %18, align 8, !tbaa !107
  %20 = icmp eq i32 %19, 0
  br i1 %20, label %_Z13for_each_exprIN3smt13model_checkerEEvRT_R8obj_markI4expr10bit_vector14default_t2uintIS5_EEPS5_.exit, label %21

21:                                               ; preds = %2, %.thread9
  %22 = getelementptr inbounds nuw i8, ptr %0, i64 160
  %23 = getelementptr inbounds nuw i8, ptr %0, i64 176
  %24 = load ptr, ptr %23, align 8, !tbaa !67
  %.not.i.i = icmp eq ptr %24, null
  br i1 %.not.i.i, label %_ZN8obj_markI4expr10bit_vector14default_t2uintIS0_EE5resetEv.exit, label %25

25:                                               ; preds = %21
  %26 = getelementptr inbounds nuw i8, ptr %0, i64 172
  %27 = load i32, ptr %26, align 4, !tbaa !201
  %28 = zext i32 %27 to i64
  %29 = shl nuw nsw i64 %28, 2
  tail call void @llvm.memset.p0.i64(ptr nonnull align 4 %24, i8 0, i64 %29, i1 false)
  br label %_ZN8obj_markI4expr10bit_vector14default_t2uintIS0_EE5resetEv.exit

_ZN8obj_markI4expr10bit_vector14default_t2uintIS0_EE5resetEv.exit: ; preds = %21, %25
  %30 = getelementptr inbounds nuw i8, ptr %0, i64 168
  store i32 0, ptr %30, align 8, !tbaa !202
  invoke void @_Z18for_each_expr_coreIN3smt13model_checkerE8obj_markI4expr10bit_vector14default_t2uintIS3_EELb1ELb0EEvRT_RT0_PS3_(ptr noundef nonnull align 8 dereferenceable(184) %0, ptr noundef nonnull align 8 dereferenceable(24) %22, ptr noundef nonnull %1)
          to label %_Z13for_each_exprIN3smt13model_checkerEEvRT_R8obj_markI4expr10bit_vector14default_t2uintIS5_EEPS5_.exit unwind label %31

31:                                               ; preds = %_ZN8obj_markI4expr10bit_vector14default_t2uintIS0_EE5resetEv.exit
  %32 = landingpad { ptr, i32 }
          catch ptr @_ZTIN3smt13model_checker14is_model_valueE
  %33 = extractvalue { ptr, i32 } %32, 1
  %34 = tail call i32 @llvm.eh.typeid.for.p0(ptr nonnull @_ZTIN3smt13model_checker14is_model_valueE) #23
  %35 = icmp eq i32 %33, %34
  br i1 %35, label %36, label %39

36:                                               ; preds = %31
  %37 = extractvalue { ptr, i32 } %32, 0
  %38 = tail call ptr @__cxa_begin_catch(ptr %37) #23
  tail call void @__cxa_end_catch()
  br label %_Z13for_each_exprIN3smt13model_checkerEEvRT_R8obj_markI4expr10bit_vector14default_t2uintIS5_EEPS5_.exit

_Z13for_each_exprIN3smt13model_checkerEEvRT_R8obj_markI4expr10bit_vector14default_t2uintIS5_EEPS5_.exit: ; preds = %_ZN8obj_markI4expr10bit_vector14default_t2uintIS0_EE5resetEv.exit, %.thread9, %_ZNK11ast_manager14is_model_valueEPK4expr.exit, %36
  %.0 = phi i1 [ true, %36 ], [ true, %_ZNK11ast_manager14is_model_valueEPK4expr.exit ], [ false, %.thread9 ], [ false, %_ZN8obj_markI4expr10bit_vector14default_t2uintIS0_EE5resetEv.exit ]
  ret i1 %.0

39:                                               ; preds = %31
  resume { ptr, i32 } %32
}